cintervaltree.intervaltree
IntervalTree
p0
((lp1
cintervaltree.interval
Interval
p2
(I0
I1048576
(dp3
S'md5sum'
p4
S'93c0f414e4c01a70fb6586b8d986d1c6'
p5
stp6
Rp7
ag2
(I1048576
I2097152
(dp8
S'md5sum'
p9
S'9bada62d83435860097d62d159eda8a9'
p10
stp11
Rp12
ag2
(I2097152
I3145728
(dp13
S'md5sum'
p14
S'090efc93f500214eefcdb34a41673197'
p15
stp16
Rp17
ag2
(I3145728
I4194304
(dp18
S'md5sum'
p19
S'0ed422b54af265ffcbedd0e0580b29cc'
p20
stp21
Rp22
ag2
(I4194304
I5242880
(dp23
S'md5sum'
p24
S'4ebae427bbbcd5b389e59e055e59a4b7'
p25
stp26
Rp27
ag2
(I5242880
I6291456
(dp28
S'md5sum'
p29
S'1a0f5eeddaeb3f991068402d8ee3eb92'
p30
stp31
Rp32
ag2
(I6291456
I7340032
(dp33
S'md5sum'
p34
S'fe1881c95c69d1115321878cc2fc3a58'
p35
stp36
Rp37
ag2
(I7340032
I8388608
(dp38
S'md5sum'
p39
S'8cf5e486dc4e92093915c6e66234fbfd'
p40
stp41
Rp42
ag2
(I8388608
I9437184
(dp43
S'md5sum'
p44
S'9d5b248ef5b8be9eccffff73c0a53318'
p45
stp46
Rp47
ag2
(I9437184
I10485760
(dp48
S'md5sum'
p49
S'c4ca5a857683c0d35677c1ded75218aa'
p50
stp51
Rp52
ag2
(I10485760
I11534336
(dp53
S'md5sum'
p54
S'a426745a2c10541fd13e5a4cdff2fd4e'
p55
stp56
Rp57
ag2
(I11534336
I12582912
(dp58
S'md5sum'
p59
S'7d5932fd0a6ff6be2c628b62a5506f5b'
p60
stp61
Rp62
ag2
(I12582912
I13631488
(dp63
S'md5sum'
p64
S'0099cf3a674f23e41d2c45baa84d286a'
p65
stp66
Rp67
ag2
(I13631488
I14680064
(dp68
S'md5sum'
p69
S'74d707c7f4a734ef3b8022ac6f6da5ef'
p70
stp71
Rp72
ag2
(I14680064
I15728640
(dp73
S'md5sum'
p74
S'3b5696825305c269e05091d98cafa7a5'
p75
stp76
Rp77
ag2
(I15728640
I16777216
(dp78
S'md5sum'
p79
S'41a8d8e0950b7b9891bbd59e7cc05797'
p80
stp81
Rp82
ag2
(I16777216
I17825792
(dp83
S'md5sum'
p84
S'eb683e9c4c5fc67d43e0d01e2140c261'
p85
stp86
Rp87
ag2
(I17825792
I18874368
(dp88
S'md5sum'
p89
S'7c44828ef8815cf619441c5f01f0b393'
p90
stp91
Rp92
ag2
(I18874368
I19922944
(dp93
S'md5sum'
p94
S'02d38c937f7bdc0f97b382d2909ff568'
p95
stp96
Rp97
ag2
(I19922944
I20971520
(dp98
S'md5sum'
p99
S'3cf715999de8a46b19bce1843d1b93b9'
p100
stp101
Rp102
ag2
(I20971520
I22020096
(dp103
S'md5sum'
p104
S'63133ad41cbe617148c3686189cf7324'
p105
stp106
Rp107
ag2
(I22020096
I23068672
(dp108
S'md5sum'
p109
S'ac5623f353e99210f38dbdd32252bd7c'
p110
stp111
Rp112
ag2
(I23068672
I24117248
(dp113
S'md5sum'
p114
S'7ac4ebfc7df4ed380a523e7c94109054'
p115
stp116
Rp117
ag2
(I24117248
I25165824
(dp118
S'md5sum'
p119
S'93cf511ec381d902b1e30a21cdad1c27'
p120
stp121
Rp122
ag2
(I25165824
I26214400
(dp123
S'md5sum'
p124
S'e69a4bd0527ed0ba26b32d1cd11daf79'
p125
stp126
Rp127
ag2
(I26214400
I27262976
(dp128
S'md5sum'
p129
S'8dd6fc49ff6016ed31cbc7fa94c43bb3'
p130
stp131
Rp132
ag2
(I27262976
I28311552
(dp133
S'md5sum'
p134
S'b1ba91746388da11dde1cc5ab6424730'
p135
stp136
Rp137
ag2
(I28311552
I29360128
(dp138
S'md5sum'
p139
S'370246541a6d617b2be7960064e3ffff'
p140
stp141
Rp142
ag2
(I29360128
I30408704
(dp143
S'md5sum'
p144
S'69494493b75cde19c590d1f2c4d27d37'
p145
stp146
Rp147
ag2
(I30408704
I31457280
(dp148
S'md5sum'
p149
S'524b3125d1d50a99d48ebd4a05f6ae03'
p150
stp151
Rp152
ag2
(I31457280
I32505856
(dp153
S'md5sum'
p154
S'21041b1ba06269d5acc6173e4f59bac7'
p155
stp156
Rp157
ag2
(I32505856
I33554432
(dp158
S'md5sum'
p159
S'aa65846fb14b9e7dc8adf3bee53cbb8a'
p160
stp161
Rp162
ag2
(I33554432
I34603008
(dp163
S'md5sum'
p164
S'3dfe032026420a9d7bfff40be8d81f8f'
p165
stp166
Rp167
ag2
(I34603008
I35318009
(dp168
S'md5sum'
p169
S'96124100fe0e1d625ce8a89835d2820b'
p170
stp171
Rp172
ag2
(L35318009L
L36366585L
(dp173
S'md5sum'
p174
S'dfc7648fdbd9797d2f351a85242b3f9b'
p175
stp176
Rp177
ag2
(L36366585L
L37415161L
(dp178
S'md5sum'
p179
S'6547e4527bd8e002717ad2f0ba626245'
p180
stp181
Rp182
ag2
(L37415161L
L38463737L
(dp183
S'md5sum'
p184
S'f7c772179a83c099c49f2dc1f73437cf'
p185
stp186
Rp187
ag2
(L38463737L
L39512313L
(dp188
S'md5sum'
p189
S'67306e0264b69cf72a7971a9ce4eb3b5'
p190
stp191
Rp192
ag2
(L39512313L
L40560889L
(dp193
S'md5sum'
p194
S'73374393d755af7d052add1b5f30f0a8'
p195
stp196
Rp197
ag2
(L40560889L
L41609465L
(dp198
S'md5sum'
p199
S'f83e212c005171fb6b04096ffd7bae2d'
p200
stp201
Rp202
ag2
(L41609465L
L42658041L
(dp203
S'md5sum'
p204
S'd65fe841ec7feb0be7fca2c5aee9adc6'
p205
stp206
Rp207
ag2
(L42658041L
L43706617L
(dp208
S'md5sum'
p209
S'92a4f3de5c697a67e29eda70e817076c'
p210
stp211
Rp212
ag2
(L43706617L
L44755193L
(dp213
S'md5sum'
p214
S'4bfb2dfc25c10d4cc1fe2b595928efc6'
p215
stp216
Rp217
ag2
(L44755193L
L45803769L
(dp218
S'md5sum'
p219
S'e9d21d103dc7b4ca367ee201c66de461'
p220
stp221
Rp222
ag2
(L45803769L
L46852345L
(dp223
S'md5sum'
p224
S'9064ba4b66da23de8b59ae1bbd16215e'
p225
stp226
Rp227
ag2
(L46852345L
L47900921L
(dp228
S'md5sum'
p229
S'e9ff9a4ee8dae55caa2b64e10b897e81'
p230
stp231
Rp232
ag2
(L47900921L
L48949497L
(dp233
S'md5sum'
p234
S'7ea65595f4663c68a78cc6932465ec67'
p235
stp236
Rp237
ag2
(L48949497L
L49998073L
(dp238
S'md5sum'
p239
S'c258e40906bfdc517f72923213d5d915'
p240
stp241
Rp242
ag2
(L49998073L
L51046649L
(dp243
S'md5sum'
p244
S'b10483f3a2cedffd666e43a60376f35f'
p245
stp246
Rp247
ag2
(L51046649L
L52095225L
(dp248
S'md5sum'
p249
S'c3ae033302bfc9777b1e49bd49cf1f14'
p250
stp251
Rp252
ag2
(L52095225L
L53143801L
(dp253
S'md5sum'
p254
S'247bf9f7ee8891b2b141656011ee8eae'
p255
stp256
Rp257
ag2
(L53143801L
L54192377L
(dp258
S'md5sum'
p259
S'f84922d416b23ab644a7aa8848986024'
p260
stp261
Rp262
ag2
(L54192377L
L55240953L
(dp263
S'md5sum'
p264
S'4b723d1257ff987eee05f09b04053e68'
p265
stp266
Rp267
ag2
(L55240953L
L56289529L
(dp268
S'md5sum'
p269
S'4101f130e1ac3d50de0f21c6a2195dd0'
p270
stp271
Rp272
ag2
(L56289529L
L57338105L
(dp273
S'md5sum'
p274
S'b503791585a98aec19eb1acba5156915'
p275
stp276
Rp277
ag2
(L57338105L
L58386681L
(dp278
S'md5sum'
p279
S'373ecad52280ff52d6d7085df2fb0955'
p280
stp281
Rp282
ag2
(L58386681L
L59435257L
(dp283
S'md5sum'
p284
S'52efc4868d5cead9a63a2ce829e50147'
p285
stp286
Rp287
ag2
(L59435257L
L60483833L
(dp288
S'md5sum'
p289
S'bdf42c71cdce6ef19b5ce69a9f80c615'
p290
stp291
Rp292
ag2
(L60483833L
L61532409L
(dp293
S'md5sum'
p294
S'4d57accf8eb65056a525afc029054fe7'
p295
stp296
Rp297
ag2
(L61532409L
L62580985L
(dp298
S'md5sum'
p299
S'd9fa0d4134cd4ec38c5f6431cc1912c0'
p300
stp301
Rp302
ag2
(L62580985L
L63629561L
(dp303
S'md5sum'
p304
S'6270c3d9e47546f82ddee19368712be0'
p305
stp306
Rp307
ag2
(L63629561L
L64678137L
(dp308
S'md5sum'
p309
S'366a215d77372494f78c920e1aee4b6b'
p310
stp311
Rp312
ag2
(L64678137L
L65726713L
(dp313
S'md5sum'
p314
S'a6b36b7f4b80a384a55f7287b33d3cc4'
p315
stp316
Rp317
ag2
(L65726713L
L66775289L
(dp318
S'md5sum'
p319
S'fcdae4c06d24dbf9dd44a9917873c3c2'
p320
stp321
Rp322
ag2
(L66775289L
L67823865L
(dp323
S'md5sum'
p324
S'fb09eb6a14a8f41d9ce44ae561de1b4d'
p325
stp326
Rp327
ag2
(L67823865L
L68872441L
(dp328
S'md5sum'
p329
S'dd650587c5d3072feac1aa6c0da771dc'
p330
stp331
Rp332
ag2
(L68872441L
L69921017L
(dp333
S'md5sum'
p334
S'743f930324963b38df36535a9e663120'
p335
stp336
Rp337
ag2
(L69921017L
L70636018L
(dp338
S'md5sum'
p339
S'b3fed89aa4019360f7d8d05df3f0a233'
p340
stp341
Rp342
ag2
(L70636018L
L71684594L
(dp343
S'md5sum'
p344
S'e7d116bf84e9331faa26601a8a135c13'
p345
stp346
Rp347
ag2
(L71684594L
L72733170L
(dp348
S'md5sum'
p349
S'4dd426b22f1fe021d7cfe63b4d09b1a8'
p350
stp351
Rp352
ag2
(L72733170L
L73781746L
(dp353
S'md5sum'
p354
S'921532107ef95797630f97ce284c8f75'
p355
stp356
Rp357
ag2
(L73781746L
L74830322L
(dp358
S'md5sum'
p359
S'17d6bd46a7d1888994b194d54a6a85aa'
p360
stp361
Rp362
ag2
(L74830322L
L75878898L
(dp363
S'md5sum'
p364
S'ae0299a023b1b7614595d3362aae2d1f'
p365
stp366
Rp367
ag2
(L75878898L
L76927474L
(dp368
S'md5sum'
p369
S'e7e1197ec93b80c2e279af8007d5d976'
p370
stp371
Rp372
ag2
(L76927474L
L77976050L
(dp373
S'md5sum'
p374
S'ab329bac991e0e13f185214c19e7cd03'
p375
stp376
Rp377
ag2
(L77976050L
L79024626L
(dp378
S'md5sum'
p379
S'37fa58a959b9b389ed965bc9df46c925'
p380
stp381
Rp382
ag2
(L79024626L
L80073202L
(dp383
S'md5sum'
p384
S'693f4a5c1a9174a27fc1047b77da35b0'
p385
stp386
Rp387
ag2
(L80073202L
L81121778L
(dp388
S'md5sum'
p389
S'2a65f4acd0d49314158654344b2521b7'
p390
stp391
Rp392
ag2
(L81121778L
L82170354L
(dp393
S'md5sum'
p394
S'35f868e3e2cfbabfdf77797748a51fd4'
p395
stp396
Rp397
ag2
(L82170354L
L83218930L
(dp398
S'md5sum'
p399
S'6220c3e143d8925f3524359196b2d52b'
p400
stp401
Rp402
ag2
(L83218930L
L84267506L
(dp403
S'md5sum'
p404
S'1cfc770561039e4a774385641eed4ca9'
p405
stp406
Rp407
ag2
(L84267506L
L85316082L
(dp408
S'md5sum'
p409
S'93d584162ae2c7d0b0f502850af99444'
p410
stp411
Rp412
ag2
(L85316082L
L86364658L
(dp413
S'md5sum'
p414
S'21b60872dcf734d0fd47a2505dd64410'
p415
stp416
Rp417
ag2
(L86364658L
L87413234L
(dp418
S'md5sum'
p419
S'c18b826f0eb7f81ab1ac74207d86668b'
p420
stp421
Rp422
ag2
(L87413234L
L88461810L
(dp423
S'md5sum'
p424
S'c59864b9770760ee273d0fe629eb868c'
p425
stp426
Rp427
ag2
(L88461810L
L89510386L
(dp428
S'md5sum'
p429
S'c3e0212372c05423f8de2d42fc906fee'
p430
stp431
Rp432
ag2
(L89510386L
L90558962L
(dp433
S'md5sum'
p434
S'81314ca51f5edd0b319165c714233b04'
p435
stp436
Rp437
ag2
(L90558962L
L91607538L
(dp438
S'md5sum'
p439
S'd48beddedfb20ba4df0adab5a89765c9'
p440
stp441
Rp442
ag2
(L91607538L
L92656114L
(dp443
S'md5sum'
p444
S'befb968e635eb9537a9b79c726a520e2'
p445
stp446
Rp447
ag2
(L92656114L
L93704690L
(dp448
S'md5sum'
p449
S'790dee92434174be8e6eeac3e11eb7e8'
p450
stp451
Rp452
ag2
(L93704690L
L94753266L
(dp453
S'md5sum'
p454
S'f7373b897da66816c774f83460653218'
p455
stp456
Rp457
ag2
(L94753266L
L95801842L
(dp458
S'md5sum'
p459
S'34fbd5b4fecfd9064e29d2a7c79620d8'
p460
stp461
Rp462
ag2
(L95801842L
L96850418L
(dp463
S'md5sum'
p464
S'ceb5c5bf439999d345082ef82f0960e5'
p465
stp466
Rp467
ag2
(L96850418L
L97898994L
(dp468
S'md5sum'
p469
S'80b0ce98ee18210eb2f3d51d88d716ce'
p470
stp471
Rp472
ag2
(L97898994L
L98947570L
(dp473
S'md5sum'
p474
S'25c71a851b8a5d26ff15ae801cfa2f00'
p475
stp476
Rp477
ag2
(L98947570L
L99276466L
(dp478
S'md5sum'
p479
S'129cb1d452a1d71dcf886c3fb7d29c18'
p480
stp481
Rp482
ag2
(L99276466L
L100325042L
(dp483
S'md5sum'
p484
S'85ad9f13fafd9c130f5086c66d3f5b41'
p485
stp486
Rp487
ag2
(L100325042L
L101373618L
(dp488
S'md5sum'
p489
S'a5acd390ca33916086173437fb44db61'
p490
stp491
Rp492
ag2
(L101373618L
L102422194L
(dp493
S'md5sum'
p494
S'b1325571e2f133d7bb48a862d7f4bd43'
p495
stp496
Rp497
ag2
(L102422194L
L103470770L
(dp498
S'md5sum'
p499
S'840abec3fa911a12b0e281a3699e2b57'
p500
stp501
Rp502
ag2
(L103470770L
L104519346L
(dp503
S'md5sum'
p504
S'8a88945040e47422c482ba4d047584bf'
p505
stp506
Rp507
ag2
(L104519346L
L105567922L
(dp508
S'md5sum'
p509
S'42277f231259ca52aad08f47afa2be17'
p510
stp511
Rp512
ag2
(L105567922L
L105954027L
(dp513
S'md5sum'
p514
S'385e09d888e031934ba5517f328f2797'
p515
stp516
Rp517
ag2
(L105954027L
L107002603L
(dp518
S'md5sum'
p519
S'064bbe7453b5bf1608b8615cf26a6210'
p520
stp521
Rp522
ag2
(L107002603L
L108051179L
(dp523
S'md5sum'
p524
S'43280dcc52491e5c1f2ae9e7bffc0d97'
p525
stp526
Rp527
ag2
(L108051179L
L109099755L
(dp528
S'md5sum'
p529
S'8d81556ee89739655f0e8e6031a16bfa'
p530
stp531
Rp532
ag2
(L109099755L
L110148331L
(dp533
S'md5sum'
p534
S'9e0e47a46628c7fdf38ba852d1e55fe5'
p535
stp536
Rp537
ag2
(L110148331L
L111196907L
(dp538
S'md5sum'
p539
S'19dc852e500db2cba44801e5e724a5d7'
p540
stp541
Rp542
ag2
(L111196907L
L112245483L
(dp543
S'md5sum'
p544
S'47b2f9742e01a63d01500711fd47f981'
p545
stp546
Rp547
ag2
(L112245483L
L113294059L
(dp548
S'md5sum'
p549
S'efef6da24fe3785545f2634be4fce5fc'
p550
stp551
Rp552
ag2
(L113294059L
L114342635L
(dp553
S'md5sum'
p554
S'e2714e6f9959035f1a9f8723149f729c'
p555
stp556
Rp557
ag2
(L114342635L
L115391211L
(dp558
S'md5sum'
p559
S'938512e439e92132534eed0bc199ddfc'
p560
stp561
Rp562
ag2
(L115391211L
L116439787L
(dp563
S'md5sum'
p564
S'a49259c24606944ea226454a8eec2593'
p565
stp566
Rp567
ag2
(L116439787L
L117488363L
(dp568
S'md5sum'
p569
S'c85639eb5c59929010679dc6ea0c98a9'
p570
stp571
Rp572
ag2
(L117488363L
L118536939L
(dp573
S'md5sum'
p574
S'b8f024055516211bdee75f57caa5e886'
p575
stp576
Rp577
ag2
(L118536939L
L119585515L
(dp578
S'md5sum'
p579
S'a10eb68c7997137e9a68ce18fec80b99'
p580
stp581
Rp582
ag2
(L119585515L
L120634091L
(dp583
S'md5sum'
p584
S'566cc2a2e033e59802d403cb9a98e8f3'
p585
stp586
Rp587
ag2
(L120634091L
L121682667L
(dp588
S'md5sum'
p589
S'06e89edaaece6749cf3b13d0ac76c721'
p590
stp591
Rp592
ag2
(L121682667L
L122731243L
(dp593
S'md5sum'
p594
S'07450e84804589063fca23950a045914'
p595
stp596
Rp597
ag2
(L122731243L
L123779819L
(dp598
S'md5sum'
p599
S'e7e253ab260882db99771adf842f576b'
p600
stp601
Rp602
ag2
(L123779819L
L124828395L
(dp603
S'md5sum'
p604
S'eff58ec479d18462ff0905628fc1d946'
p605
stp606
Rp607
ag2
(L124828395L
L125876971L
(dp608
S'md5sum'
p609
S'429cc454c8b07a8b411523dcd11a32ce'
p610
stp611
Rp612
ag2
(L125876971L
L126925547L
(dp613
S'md5sum'
p614
S'0522960790497e879fa5cb96c456265a'
p615
stp616
Rp617
ag2
(L126925547L
L127974123L
(dp618
S'md5sum'
p619
S'67d50f609aa82b7affdc7d1b9f4386b6'
p620
stp621
Rp622
ag2
(L127974123L
L129022699L
(dp623
S'md5sum'
p624
S'83f7f7d238ecb9a3d4a3b5f511afbfde'
p625
stp626
Rp627
ag2
(L129022699L
L130071275L
(dp628
S'md5sum'
p629
S'49a8468416747ebad30068eb7ebc95c0'
p630
stp631
Rp632
ag2
(L130071275L
L131119851L
(dp633
S'md5sum'
p634
S'48d87ebe9dc7ab7254a36e605cc43cfa'
p635
stp636
Rp637
ag2
(L131119851L
L132168427L
(dp638
S'md5sum'
p639
S'aa1114ff1b2a436def8f2070cf3ad98a'
p640
stp641
Rp642
ag2
(L132168427L
L133217003L
(dp643
S'md5sum'
p644
S'2b5596b180a31a7cde82bb11baf0606f'
p645
stp646
Rp647
ag2
(L133217003L
L134265579L
(dp648
S'md5sum'
p649
S'5168fe9c30f99a10e40eb507da1e062c'
p650
stp651
Rp652
ag2
(L134265579L
L135314155L
(dp653
S'md5sum'
p654
S'4a99d9e197dac8b87c613da5162c4c14'
p655
stp656
Rp657
ag2
(L135314155L
L136362731L
(dp658
S'md5sum'
p659
S'8f8cf4076c9a393c386cc776256d12bf'
p660
stp661
Rp662
ag2
(L136362731L
L137411307L
(dp663
S'md5sum'
p664
S'1960f761533b4c8c107f0297a9dc823b'
p665
stp666
Rp667
ag2
(L137411307L
L138459883L
(dp668
S'md5sum'
p669
S'7eb1ac70e1551df0a805812f6e211ae0'
p670
stp671
Rp672
ag2
(L138459883L
L139508459L
(dp673
S'md5sum'
p674
S'5e8f4ded6375b00462f80cb56cc9ed85'
p675
stp676
Rp677
ag2
(L139508459L
L140557035L
(dp678
S'md5sum'
p679
S'bb7978d343af24cff081b0296737ee5b'
p680
stp681
Rp682
ag2
(L140557035L
L141272036L
(dp683
S'md5sum'
p684
S'4a298ae7311408d1cf265330a6b7ce92'
p685
stp686
Rp687
atp688
Rp689
.