cintervaltree.intervaltree
IntervalTree
p0
((lp1
cintervaltree.interval
Interval
p2
(I0
I1048576
(dp3
S'md5sum'
p4
S'cc7bdd4d508ff2e59b70994c7c8c81c5'
p5
stp6
Rp7
ag2
(I1048576
I2097152
(dp8
S'md5sum'
p9
S'8bf90f71aaa61c7b104d652f056a2179'
p10
stp11
Rp12
ag2
(I2097152
I3145728
(dp13
S'md5sum'
p14
S'd6d4dac86d9bf0dc4ac774bd32f06130'
p15
stp16
Rp17
ag2
(I3145728
I4194304
(dp18
S'md5sum'
p19
S'd783bcfed1e310542a5fb8114027f9c2'
p20
stp21
Rp22
ag2
(I4194304
I5242880
(dp23
S'md5sum'
p24
S'34adac6fc265863fab03fddc2578cda0'
p25
stp26
Rp27
ag2
(I5242880
I6291456
(dp28
S'md5sum'
p29
S'47a093e6fa03f123bd71b578b364311c'
p30
stp31
Rp32
ag2
(I6291456
I7340032
(dp33
S'md5sum'
p34
S'c748ede56a2886b62b79e6f637d0a86f'
p35
stp36
Rp37
ag2
(I7340032
I8388608
(dp38
S'md5sum'
p39
S'1b6657bc8224a76cc5304a22ad719632'
p40
stp41
Rp42
ag2
(I8388608
I9437184
(dp43
S'md5sum'
p44
S'298b1458cf42787a90f181055f9425d7'
p45
stp46
Rp47
ag2
(I9437184
I10485760
(dp48
S'md5sum'
p49
S'e418e2a521ac3fe23c966bf3f627f6e4'
p50
stp51
Rp52
ag2
(I10485760
I11534336
(dp53
S'md5sum'
p54
S'd3b4dc0bf4ec8cf11df640e017bca17a'
p55
stp56
Rp57
ag2
(I11534336
I12582912
(dp58
S'md5sum'
p59
S'ae8ada758f390465bd09754c2b069203'
p60
stp61
Rp62
ag2
(I12582912
I13631488
(dp63
S'md5sum'
p64
S'2d59a36dac4e3d365d18b69a9e1c5000'
p65
stp66
Rp67
ag2
(I13631488
I14680064
(dp68
S'md5sum'
p69
S'8d2df2cb1c55263c652fe18a4321c7b8'
p70
stp71
Rp72
ag2
(I14680064
I15728640
(dp73
S'md5sum'
p74
S'0a6e0b943bdfbd97253e13e5904c0ddf'
p75
stp76
Rp77
ag2
(I15728640
I16777216
(dp78
S'md5sum'
p79
S'b8271b200ebd4dec88872783a5ed42d4'
p80
stp81
Rp82
ag2
(I16777216
I17825792
(dp83
S'md5sum'
p84
S'1b66e7e8cfd90ac43ced86cfe340e4b5'
p85
stp86
Rp87
ag2
(I17825792
I18874368
(dp88
S'md5sum'
p89
S'ecf1a79a2806ba8604ce6af830af0cb1'
p90
stp91
Rp92
ag2
(I18874368
I19922944
(dp93
S'md5sum'
p94
S'4112a7cad4c6042deeff75284f1d708b'
p95
stp96
Rp97
ag2
(I19922944
I20971520
(dp98
S'md5sum'
p99
S'22ca142c88dd6fd7bc249cf9ea7e17bb'
p100
stp101
Rp102
ag2
(I20971520
I22020096
(dp103
S'md5sum'
p104
S'53efb278a5092fc04703ebacf3407abf'
p105
stp106
Rp107
ag2
(I22020096
I23068672
(dp108
S'md5sum'
p109
S'6c80506ca63e2258995b1c3740a8abd0'
p110
stp111
Rp112
ag2
(I23068672
I24117248
(dp113
S'md5sum'
p114
S'12a0868fa52c99e7f013bd50379c1061'
p115
stp116
Rp117
ag2
(I24117248
I25165824
(dp118
S'md5sum'
p119
S'aa8913bb0bec041f8831f48ec43169a8'
p120
stp121
Rp122
ag2
(I25165824
I26214400
(dp123
S'md5sum'
p124
S'eab48a7a4d4e4d82ba33cf0ab8679f15'
p125
stp126
Rp127
ag2
(I26214400
I27262976
(dp128
S'md5sum'
p129
S'c28e9c2d0e62dc975ffa18801d74031d'
p130
stp131
Rp132
ag2
(I27262976
I28311552
(dp133
S'md5sum'
p134
S'f67390ffc7c59b52e66fa4240dd765d4'
p135
stp136
Rp137
ag2
(I28311552
I29360128
(dp138
S'md5sum'
p139
S'ef833c142aff0e728b90ebed40184500'
p140
stp141
Rp142
ag2
(I29360128
I30408704
(dp143
S'md5sum'
p144
S'380a6aeb0898e7db0672cea90b577b14'
p145
stp146
Rp147
ag2
(I30408704
I31457280
(dp148
S'md5sum'
p149
S'2ee5b9a0c79811789c4ae8605bd723c0'
p150
stp151
Rp152
ag2
(I31457280
I32505856
(dp153
S'md5sum'
p154
S'dc681d36ef1dba14cd1298fd8d211a3a'
p155
stp156
Rp157
ag2
(I32505856
I33554432
(dp158
S'md5sum'
p159
S'66d383d37ac0a259dfb60cefd5bd18e3'
p160
stp161
Rp162
ag2
(I33554432
I34603008
(dp163
S'md5sum'
p164
S'dec679d8d7dfb0e0ae8f9d04cc4361ff'
p165
stp166
Rp167
ag2
(I34603008
I35316176
(dp168
S'md5sum'
p169
S'f60f556f6cc82282f31f7c209362db34'
p170
stp171
Rp172
ag2
(L35316176L
L36364752L
(dp173
S'md5sum'
p174
S'bd549def0af88b6da851b31d6b5f4130'
p175
stp176
Rp177
ag2
(L36364752L
L37413328L
(dp178
S'md5sum'
p179
S'05c7c494034aaa59f0d064efb8c11c97'
p180
stp181
Rp182
ag2
(L37413328L
L38461904L
(dp183
S'md5sum'
p184
S'5cb78e49bd86c9b09c10491c454f4a67'
p185
stp186
Rp187
ag2
(L38461904L
L39510480L
(dp188
S'md5sum'
p189
S'eb7e344aa6e8db0ff8189bd3ceb86913'
p190
stp191
Rp192
ag2
(L39510480L
L40559056L
(dp193
S'md5sum'
p194
S'368ef29581260d9d990d5dc55f542680'
p195
stp196
Rp197
ag2
(L40559056L
L41607632L
(dp198
S'md5sum'
p199
S'c1d31495e1a55b4a87b619e2b47f04cf'
p200
stp201
Rp202
ag2
(L41607632L
L42656208L
(dp203
S'md5sum'
p204
S'faef00e5671fa2bddcaa2e08a58152ca'
p205
stp206
Rp207
ag2
(L42656208L
L43704784L
(dp208
S'md5sum'
p209
S'7f0392a39b8d91b1e5835da6af159572'
p210
stp211
Rp212
ag2
(L43704784L
L44753360L
(dp213
S'md5sum'
p214
S'f2bb3d7a2080a9e19c935381d3f43b12'
p215
stp216
Rp217
ag2
(L44753360L
L45801936L
(dp218
S'md5sum'
p219
S'289d708bd3d9127e2a648e6aade76128'
p220
stp221
Rp222
ag2
(L45801936L
L46850512L
(dp223
S'md5sum'
p224
S'7bd4b45f05230c3cad524e8a2fcff230'
p225
stp226
Rp227
ag2
(L46850512L
L47899088L
(dp228
S'md5sum'
p229
S'5e11884631132693c7225e65a419b4ab'
p230
stp231
Rp232
ag2
(L47899088L
L48947664L
(dp233
S'md5sum'
p234
S'd1f63e105273e3de2ba7699046e3e93d'
p235
stp236
Rp237
ag2
(L48947664L
L49996240L
(dp238
S'md5sum'
p239
S'c9afe5910632cf7f18203bdc55a49cea'
p240
stp241
Rp242
ag2
(L49996240L
L51044816L
(dp243
S'md5sum'
p244
S'9ee7247850ed86614f71a1cbb534987b'
p245
stp246
Rp247
ag2
(L51044816L
L52093392L
(dp248
S'md5sum'
p249
S'09209148f964baf8aac7c933b77be882'
p250
stp251
Rp252
ag2
(L52093392L
L53141968L
(dp253
S'md5sum'
p254
S'5a09dc811553b8640cc7a76fe9b3323a'
p255
stp256
Rp257
ag2
(L53141968L
L54190544L
(dp258
S'md5sum'
p259
S'd3f9043b1cceb1b68e62e31e07b666bd'
p260
stp261
Rp262
ag2
(L54190544L
L55239120L
(dp263
S'md5sum'
p264
S'3161ffd27002cb36acd855c142b234a6'
p265
stp266
Rp267
ag2
(L55239120L
L56287696L
(dp268
S'md5sum'
p269
S'f7b4f098cfd40910f5bf00fb07699e3d'
p270
stp271
Rp272
ag2
(L56287696L
L57336272L
(dp273
S'md5sum'
p274
S'c5318f470ecb925842822690e72b2638'
p275
stp276
Rp277
ag2
(L57336272L
L58384848L
(dp278
S'md5sum'
p279
S'fa6554505e44f25d5a2e8d71b1313721'
p280
stp281
Rp282
ag2
(L58384848L
L59433424L
(dp283
S'md5sum'
p284
S'2bfa183904fa9e298b47abc8d7f4a27b'
p285
stp286
Rp287
ag2
(L59433424L
L60482000L
(dp288
S'md5sum'
p289
S'72ea22a091ab92307609aaafbb5ec13b'
p290
stp291
Rp292
ag2
(L60482000L
L61530576L
(dp293
S'md5sum'
p294
S'e5c4571cb7d943282e9dc0f53cee8db6'
p295
stp296
Rp297
ag2
(L61530576L
L62579152L
(dp298
S'md5sum'
p299
S'4bf7718b3d653ce8c28f3ea440c76497'
p300
stp301
Rp302
ag2
(L62579152L
L63627728L
(dp303
S'md5sum'
p304
S'848366aabda7ce18753fc1b7de101932'
p305
stp306
Rp307
ag2
(L63627728L
L64676304L
(dp308
S'md5sum'
p309
S'ee3a97098519ef85ae810505ed21df02'
p310
stp311
Rp312
ag2
(L64676304L
L65724880L
(dp313
S'md5sum'
p314
S'7cb3b1ca8d512b3f0131b242b5c35804'
p315
stp316
Rp317
ag2
(L65724880L
L66773456L
(dp318
S'md5sum'
p319
S'5941c6ca15330ca259d2433f9adce233'
p320
stp321
Rp322
ag2
(L66773456L
L67822032L
(dp323
S'md5sum'
p324
S'2316996f02c99eacdaa15380c4dd202b'
p325
stp326
Rp327
ag2
(L67822032L
L68870608L
(dp328
S'md5sum'
p329
S'5ad980802e6bd4f42a4156a28059431b'
p330
stp331
Rp332
ag2
(L68870608L
L69919184L
(dp333
S'md5sum'
p334
S'727c88ed4a0648cfe0a174af74b7f46b'
p335
stp336
Rp337
ag2
(L69919184L
L70632352L
(dp338
S'md5sum'
p339
S'34daf64fd8aae72fbce381cb5aaefb0a'
p340
stp341
Rp342
ag2
(L70632352L
L71680928L
(dp343
S'md5sum'
p344
S'84cc6e91feebafd99bc636a8c68890df'
p345
stp346
Rp347
ag2
(L71680928L
L72729504L
(dp348
S'md5sum'
p349
S'b094b6754baae8c7578a70e2efabecdf'
p350
stp351
Rp352
ag2
(L72729504L
L73778080L
(dp353
S'md5sum'
p354
S'ed7d74c2ae6057d05b896587b9a0aa7c'
p355
stp356
Rp357
ag2
(L73778080L
L74826656L
(dp358
S'md5sum'
p359
S'838efcf4480094a45fd61c9680aa40de'
p360
stp361
Rp362
ag2
(L74826656L
L75875232L
(dp363
S'md5sum'
p364
S'55045b1b30da4cceeab5abe59d6c3d46'
p365
stp366
Rp367
ag2
(L75875232L
L76923808L
(dp368
S'md5sum'
p369
S'26055e50b675dd0784a308488cd60146'
p370
stp371
Rp372
ag2
(L76923808L
L77972384L
(dp373
S'md5sum'
p374
S'a995f0b9310a38a46790b481ea550df9'
p375
stp376
Rp377
ag2
(L77972384L
L79020960L
(dp378
S'md5sum'
p379
S'15ece29d9ece34228e6be830c1c9b97e'
p380
stp381
Rp382
ag2
(L79020960L
L80069536L
(dp383
S'md5sum'
p384
S'c2e46eca6bd50c1c9edaddeea00cced2'
p385
stp386
Rp387
ag2
(L80069536L
L81118112L
(dp388
S'md5sum'
p389
S'340dea9900c70c994009b85cf1f7e27f'
p390
stp391
Rp392
ag2
(L81118112L
L82166688L
(dp393
S'md5sum'
p394
S'e22511a916f04df28059de7f8042f073'
p395
stp396
Rp397
ag2
(L82166688L
L83215264L
(dp398
S'md5sum'
p399
S'9c56c9d0d94341d053658e60c223cbfa'
p400
stp401
Rp402
ag2
(L83215264L
L84263840L
(dp403
S'md5sum'
p404
S'222603927fc70ab7d55b96f9733b4295'
p405
stp406
Rp407
ag2
(L84263840L
L85312416L
(dp408
S'md5sum'
p409
S'dbee384b2f1a723ee94c805ed61b92f6'
p410
stp411
Rp412
ag2
(L85312416L
L86360992L
(dp413
S'md5sum'
p414
S'e304677cb92c14ffb922b6cdcc9ba6ca'
p415
stp416
Rp417
ag2
(L86360992L
L87409568L
(dp418
S'md5sum'
p419
S'2a3f95d007717d8114ffce34c466b411'
p420
stp421
Rp422
ag2
(L87409568L
L88458144L
(dp423
S'md5sum'
p424
S'f61b19dc43b7aa9b8eb10ca4cbd52146'
p425
stp426
Rp427
ag2
(L88458144L
L89506720L
(dp428
S'md5sum'
p429
S'f205e1d04e9a37360171650b8b02279e'
p430
stp431
Rp432
ag2
(L89506720L
L90555296L
(dp433
S'md5sum'
p434
S'a03ade4ae2f174f7ce40cce37bfeeba1'
p435
stp436
Rp437
ag2
(L90555296L
L91603872L
(dp438
S'md5sum'
p439
S'da14fa5fbb779264fbeeee42fa4fae9f'
p440
stp441
Rp442
ag2
(L91603872L
L92652448L
(dp443
S'md5sum'
p444
S'dd6766d84eeb067bc06deec607affacd'
p445
stp446
Rp447
ag2
(L92652448L
L93701024L
(dp448
S'md5sum'
p449
S'6719c7e44d88442d517168630cb982da'
p450
stp451
Rp452
ag2
(L93701024L
L94749600L
(dp453
S'md5sum'
p454
S'f781439f34d55ae4bad11035a3a5eb64'
p455
stp456
Rp457
ag2
(L94749600L
L95798176L
(dp458
S'md5sum'
p459
S'3fb92b7bcff769dca2017d654aeb733b'
p460
stp461
Rp462
ag2
(L95798176L
L96846752L
(dp463
S'md5sum'
p464
S'c0c79d3ba4e3c656989fc0fb7616b433'
p465
stp466
Rp467
ag2
(L96846752L
L97895328L
(dp468
S'md5sum'
p469
S'095c75880ea4907f58318c742c3d77ed'
p470
stp471
Rp472
ag2
(L97895328L
L98943904L
(dp473
S'md5sum'
p474
S'6c85c50a6613e5d63d4bc799d028992a'
p475
stp476
Rp477
ag2
(L98943904L
L99992480L
(dp478
S'md5sum'
p479
S'564d47a3d2cf3d0290dc73321f950f4c'
p480
stp481
Rp482
ag2
(L99992480L
L101041056L
(dp483
S'md5sum'
p484
S'f7f10b56b9d76502bc399b317f826ae8'
p485
stp486
Rp487
ag2
(L101041056L
L102089632L
(dp488
S'md5sum'
p489
S'96891ddbb1412bfb14b772036354d908'
p490
stp491
Rp492
ag2
(L102089632L
L103138208L
(dp493
S'md5sum'
p494
S'89469ddd12601dcc326b8e99721a1530'
p495
stp496
Rp497
ag2
(L103138208L
L104186784L
(dp498
S'md5sum'
p499
S'57646bce01e379757d3569604ccdbaef'
p500
stp501
Rp502
ag2
(L104186784L
L105235360L
(dp503
S'md5sum'
p504
S'a6b7fb15f32a513274bce03e32c56717'
p505
stp506
Rp507
ag2
(L105235360L
L105948528L
(dp508
S'md5sum'
p509
S'375e64d2e2e72d097acc3ced88bd68d4'
p510
stp511
Rp512
ag2
(L105948528L
L106997104L
(dp513
S'md5sum'
p514
S'fffd8b51308ccb274aa44f79c94c8118'
p515
stp516
Rp517
ag2
(L106997104L
L108045680L
(dp518
S'md5sum'
p519
S'1e8ff1487e237eb2eccdf2c67a96b972'
p520
stp521
Rp522
ag2
(L108045680L
L109094256L
(dp523
S'md5sum'
p524
S'f3217e10010780ef9a6f2d4c2720a104'
p525
stp526
Rp527
ag2
(L109094256L
L110142832L
(dp528
S'md5sum'
p529
S'ac6e8f4548cd2cbad56522493e1f04ac'
p530
stp531
Rp532
ag2
(L110142832L
L111191408L
(dp533
S'md5sum'
p534
S'25e03c4c62393ad73cc569b22e44e7c1'
p535
stp536
Rp537
ag2
(L111191408L
L112239984L
(dp538
S'md5sum'
p539
S'344ddc1b2bf3a1be41e19744bccf44a7'
p540
stp541
Rp542
ag2
(L112239984L
L113288560L
(dp543
S'md5sum'
p544
S'49632153ca6b616357a53dbcbe8244dc'
p545
stp546
Rp547
ag2
(L113288560L
L114337136L
(dp548
S'md5sum'
p549
S'132a7a8035e6e0527da38019f75c1e03'
p550
stp551
Rp552
ag2
(L114337136L
L115385712L
(dp553
S'md5sum'
p554
S'1df920c298f758799073afc146c3b77e'
p555
stp556
Rp557
ag2
(L115385712L
L116434288L
(dp558
S'md5sum'
p559
S'e5bd0c11d9fffcfd4ba682c809647354'
p560
stp561
Rp562
ag2
(L116434288L
L117482864L
(dp563
S'md5sum'
p564
S'6c89cb6944b583fec2be05c9cf1574d0'
p565
stp566
Rp567
ag2
(L117482864L
L118531440L
(dp568
S'md5sum'
p569
S'c60b1709f09410eeb7a083708068584c'
p570
stp571
Rp572
ag2
(L118531440L
L119580016L
(dp573
S'md5sum'
p574
S'7e7dada71183c7161d8b321e4105e53c'
p575
stp576
Rp577
ag2
(L119580016L
L120628592L
(dp578
S'md5sum'
p579
S'440ed34554c87bfb0d59f32eddf4e47e'
p580
stp581
Rp582
ag2
(L120628592L
L121677168L
(dp583
S'md5sum'
p584
S'7cf6f3f5d6f1895f7215340deffb12c9'
p585
stp586
Rp587
ag2
(L121677168L
L122725744L
(dp588
S'md5sum'
p589
S'3a52e585027fe87b64758f23ce28c17b'
p590
stp591
Rp592
ag2
(L122725744L
L123774320L
(dp593
S'md5sum'
p594
S'9b95a8630a7c1819dfd946f8bc9390b2'
p595
stp596
Rp597
ag2
(L123774320L
L124822896L
(dp598
S'md5sum'
p599
S'df9dadac8b96ba422486dcfdc9935af7'
p600
stp601
Rp602
ag2
(L124822896L
L125871472L
(dp603
S'md5sum'
p604
S'dafb98160d237b381dea6c170f9ca284'
p605
stp606
Rp607
ag2
(L125871472L
L126920048L
(dp608
S'md5sum'
p609
S'7af12b664811730c72b4ebfb22422640'
p610
stp611
Rp612
ag2
(L126920048L
L127968624L
(dp613
S'md5sum'
p614
S'1698be12341424c1524da80693716cee'
p615
stp616
Rp617
ag2
(L127968624L
L129017200L
(dp618
S'md5sum'
p619
S'27963bdedc595a243bf177b5a64a84d6'
p620
stp621
Rp622
ag2
(L129017200L
L130065776L
(dp623
S'md5sum'
p624
S'398fd14353897ff6745bb84387731bc0'
p625
stp626
Rp627
ag2
(L130065776L
L131114352L
(dp628
S'md5sum'
p629
S'be22aea661a04ebb557830a1e03322cd'
p630
stp631
Rp632
ag2
(L131114352L
L132162928L
(dp633
S'md5sum'
p634
S'c74c3a5e4aadd3f60c355d0c498e4cf8'
p635
stp636
Rp637
ag2
(L132162928L
L133211504L
(dp638
S'md5sum'
p639
S'0e38b70a6f9c627239586e2bf003e314'
p640
stp641
Rp642
ag2
(L133211504L
L134260080L
(dp643
S'md5sum'
p644
S'68ffcd03fde3ab51e72ead9a8b0766fa'
p645
stp646
Rp647
ag2
(L134260080L
L135308656L
(dp648
S'md5sum'
p649
S'64249c5b5a1444bdf964c856fd71bac2'
p650
stp651
Rp652
ag2
(L135308656L
L136357232L
(dp653
S'md5sum'
p654
S'29930b687156298c4bd4c3c933a3d3f0'
p655
stp656
Rp657
ag2
(L136357232L
L137405808L
(dp658
S'md5sum'
p659
S'd62dfd7d446122b7c37f6485f27a7dff'
p660
stp661
Rp662
ag2
(L137405808L
L138454384L
(dp663
S'md5sum'
p664
S'8d79bb301eb07a9d3f528baf21669bc1'
p665
stp666
Rp667
ag2
(L138454384L
L139502960L
(dp668
S'md5sum'
p669
S'dd74fb7b83f7d0d59c3d763b14aa8676'
p670
stp671
Rp672
ag2
(L139502960L
L140551536L
(dp673
S'md5sum'
p674
S'28cd796f2977488bf47aa2104a0ca4b0'
p675
stp676
Rp677
ag2
(L140551536L
L141264704L
(dp678
S'md5sum'
p679
S'51f5138d4701247612a7ce99939c2924'
p680
stp681
Rp682
ag2
(L141264704L
L141264706L
(dp683
S'md5sum'
p684
S'8cf8463b34caa8ac871a52d5dd7ad1ef'
p685
stp686
Rp687
atp688
Rp689
.