cintervaltree.intervaltree
IntervalTree
p0
((lp1
cintervaltree.interval
Interval
p2
(I0
I1048576
(dp3
S'md5sum'
p4
S'013d2d6a5aaa571de5bccafc83cf85b6'
p5
stp6
Rp7
ag2
(I1048576
I2097152
(dp8
S'md5sum'
p9
S'96f0defdff3a33dc84067842af1159b0'
p10
stp11
Rp12
ag2
(I2097152
I3145728
(dp13
S'md5sum'
p14
S'210b0538e69ddaea657acbb33a8948f9'
p15
stp16
Rp17
ag2
(I3145728
I4194304
(dp18
S'md5sum'
p19
S'602081529713c236c5131eb088825970'
p20
stp21
Rp22
ag2
(I4194304
I5242880
(dp23
S'md5sum'
p24
S'a96d5d8c94ad57e2db5047a29da42fbf'
p25
stp26
Rp27
ag2
(I5242880
I6291456
(dp28
S'md5sum'
p29
S'ccb10340f4e975601d20affd6dac1ebe'
p30
stp31
Rp32
ag2
(I6291456
I7340032
(dp33
S'md5sum'
p34
S'ddb4b030ed3d4f89bb657a4c2adb75e8'
p35
stp36
Rp37
ag2
(I7340032
I8388608
(dp38
S'md5sum'
p39
S'00ebc75c9f8bfc6f2592a9d38f696195'
p40
stp41
Rp42
ag2
(I8388608
I9437184
(dp43
S'md5sum'
p44
S'5f8fb9ad074d4f3f6fee540978850bf8'
p45
stp46
Rp47
ag2
(I9437184
I10485760
(dp48
S'md5sum'
p49
S'd6583534419d652f0996438200fec0b9'
p50
stp51
Rp52
ag2
(I10485760
I11534336
(dp53
S'md5sum'
p54
S'804c913007fb88e18e347f812f814a02'
p55
stp56
Rp57
ag2
(I11534336
I12582912
(dp58
S'md5sum'
p59
S'0a0c36439f2ad1aada3180b031512a92'
p60
stp61
Rp62
ag2
(I12582912
I13631488
(dp63
S'md5sum'
p64
S'f229da400e2a093c1a93f8800eb58b3a'
p65
stp66
Rp67
ag2
(I13631488
I14680064
(dp68
S'md5sum'
p69
S'aaa4acd47b67733abe29b38ccb4c88ca'
p70
stp71
Rp72
ag2
(I14680064
I15728640
(dp73
S'md5sum'
p74
S'2c91e7286c2bf9008613da8cd6c16bf6'
p75
stp76
Rp77
ag2
(I15728640
I16777216
(dp78
S'md5sum'
p79
S'64ca8f92706110f99fe6a4f7900e57b6'
p80
stp81
Rp82
ag2
(I16777216
I17825792
(dp83
S'md5sum'
p84
S'e20b82b064ca3b3f5586bdcadc21b14c'
p85
stp86
Rp87
ag2
(I17825792
I18874368
(dp88
S'md5sum'
p89
S'0087e4d54d6ffecbd8b8c72b912f4c65'
p90
stp91
Rp92
ag2
(I18874368
I19922944
(dp93
S'md5sum'
p94
S'3eb5a3f99106db8b4e313fcd0ffbde5d'
p95
stp96
Rp97
ag2
(I19922944
I20971520
(dp98
S'md5sum'
p99
S'75831e56584a63414e6b083facc225c1'
p100
stp101
Rp102
ag2
(I20971520
I22020096
(dp103
S'md5sum'
p104
S'd5b6f1d208fa7293567cd2e221ca450b'
p105
stp106
Rp107
ag2
(I22020096
I23068672
(dp108
S'md5sum'
p109
S'd1a547142eb395d0fa55c459637f3fd9'
p110
stp111
Rp112
ag2
(I23068672
I24117248
(dp113
S'md5sum'
p114
S'440f5a8066104a9bab30e8afcae41e15'
p115
stp116
Rp117
ag2
(I24117248
I25165824
(dp118
S'md5sum'
p119
S'e7e1bb67e635d036a6ed3b08b058903c'
p120
stp121
Rp122
ag2
(I25165824
I26214400
(dp123
S'md5sum'
p124
S'406ddf686717022b4aa575334d01ef1d'
p125
stp126
Rp127
ag2
(I26214400
I27262976
(dp128
S'md5sum'
p129
S'eb1da4e9664f7c83b933478aa1668d1c'
p130
stp131
Rp132
ag2
(I27262976
I28311552
(dp133
S'md5sum'
p134
S'7917171565b30bea1cb894f47c89ef9b'
p135
stp136
Rp137
ag2
(I28311552
I29360128
(dp138
S'md5sum'
p139
S'5b0c7cf7036bc73b9f177bd2d3ef69f3'
p140
stp141
Rp142
ag2
(I29360128
I30408704
(dp143
S'md5sum'
p144
S'f7c1484aa768ee3d4f6caca1d5d527da'
p145
stp146
Rp147
ag2
(I30408704
I31457280
(dp148
S'md5sum'
p149
S'b365b0474498c82c575a6b4d28aced51'
p150
stp151
Rp152
ag2
(I31457280
I32505856
(dp153
S'md5sum'
p154
S'97d8ff0aa28cc2b9823a0530a66cd5a7'
p155
stp156
Rp157
ag2
(I32505856
I33554432
(dp158
S'md5sum'
p159
S'ded250ba44151fabf5fe8f64b8011804'
p160
stp161
Rp162
ag2
(I33554432
I34603008
(dp163
S'md5sum'
p164
S'e0f637920a6a588abd4ff36206d2c806'
p165
stp166
Rp167
ag2
(I34603008
I35316054
(dp168
S'md5sum'
p169
S'f6609af5eb3457f715f4d72123bf8fb0'
p170
stp171
Rp172
ag2
(L35316054L
L36364630L
(dp173
S'md5sum'
p174
S'6af694b97eb8c616bc0e6f01f0772fcc'
p175
stp176
Rp177
ag2
(L36364630L
L37413206L
(dp178
S'md5sum'
p179
S'1bd80ac1e4dbbc4fb3d93225f0227aeb'
p180
stp181
Rp182
ag2
(L37413206L
L38461782L
(dp183
S'md5sum'
p184
S'67546e49128c00474465850ec8ecb63a'
p185
stp186
Rp187
ag2
(L38461782L
L39510358L
(dp188
S'md5sum'
p189
S'18e1371b175420b842f4cc010839dbca'
p190
stp191
Rp192
ag2
(L39510358L
L40558934L
(dp193
S'md5sum'
p194
S'646bcff12445a60d2fee57b807942e2a'
p195
stp196
Rp197
ag2
(L40558934L
L41607510L
(dp198
S'md5sum'
p199
S'53e7858e79f1ea3956f33538fab5f623'
p200
stp201
Rp202
ag2
(L41607510L
L42656086L
(dp203
S'md5sum'
p204
S'4f64020c90e02c3f9d805efeefba8669'
p205
stp206
Rp207
ag2
(L42656086L
L43704662L
(dp208
S'md5sum'
p209
S'0711cdbc6e96ba87641892c22955727a'
p210
stp211
Rp212
ag2
(L43704662L
L44753238L
(dp213
S'md5sum'
p214
S'299498f120d1e83d28731654a3c23f96'
p215
stp216
Rp217
ag2
(L44753238L
L45801814L
(dp218
S'md5sum'
p219
S'b31bf0b269b73154bd468b621f325534'
p220
stp221
Rp222
ag2
(L45801814L
L46850390L
(dp223
S'md5sum'
p224
S'50dff4d74c32fe0d27f932a7c36f6577'
p225
stp226
Rp227
ag2
(L46850390L
L47898966L
(dp228
S'md5sum'
p229
S'ce074ed14f8095d1b9bfec6187ab9da6'
p230
stp231
Rp232
ag2
(L47898966L
L48947542L
(dp233
S'md5sum'
p234
S'2d6763bc63c7dce48b2e4925ccfaf515'
p235
stp236
Rp237
ag2
(L48947542L
L49996118L
(dp238
S'md5sum'
p239
S'4ca6f91db1240f8f89a52b40d6c95d2b'
p240
stp241
Rp242
ag2
(L49996118L
L51044694L
(dp243
S'md5sum'
p244
S'a74cac2b722c86b76c3f06af8bce1bbf'
p245
stp246
Rp247
ag2
(L51044694L
L52093270L
(dp248
S'md5sum'
p249
S'8e066424c84676363a5952a2c9126d30'
p250
stp251
Rp252
ag2
(L52093270L
L53141846L
(dp253
S'md5sum'
p254
S'a3042a4058eabc766cc2377aafee6642'
p255
stp256
Rp257
ag2
(L53141846L
L54190422L
(dp258
S'md5sum'
p259
S'171365bdb373430709542909264b810b'
p260
stp261
Rp262
ag2
(L54190422L
L55238998L
(dp263
S'md5sum'
p264
S'6fa09f336f06bbdd6c40e06ede7628a2'
p265
stp266
Rp267
ag2
(L55238998L
L56287574L
(dp268
S'md5sum'
p269
S'2bbcad3044b75d81b24f5830bde49cb8'
p270
stp271
Rp272
ag2
(L56287574L
L57336150L
(dp273
S'md5sum'
p274
S'f9c91f5a4b7a34c633a2280b457bd645'
p275
stp276
Rp277
ag2
(L57336150L
L58384726L
(dp278
S'md5sum'
p279
S'bd708d5ddd1cff8d01d3a8c8ac527d2f'
p280
stp281
Rp282
ag2
(L58384726L
L59433302L
(dp283
S'md5sum'
p284
S'67697b26dc2147699f58920c4bcb59d6'
p285
stp286
Rp287
ag2
(L59433302L
L60481878L
(dp288
S'md5sum'
p289
S'c54aa37b8ee9dd715b179c36b0d195a3'
p290
stp291
Rp292
ag2
(L60481878L
L61530454L
(dp293
S'md5sum'
p294
S'553a0ec67a378bef9be7ea6bec00d700'
p295
stp296
Rp297
ag2
(L61530454L
L62579030L
(dp298
S'md5sum'
p299
S'188d992cc4d284c93f518e40e5eb0f1e'
p300
stp301
Rp302
ag2
(L62579030L
L63627606L
(dp303
S'md5sum'
p304
S'51f8c52c58947f78083c731c566bc01f'
p305
stp306
Rp307
ag2
(L63627606L
L64676182L
(dp308
S'md5sum'
p309
S'b6316c0818ac81e97898c37f1655f9ed'
p310
stp311
Rp312
ag2
(L64676182L
L65724758L
(dp313
S'md5sum'
p314
S'b04d1760de859abc0ba8e3f27a1a8648'
p315
stp316
Rp317
ag2
(L65724758L
L66773334L
(dp318
S'md5sum'
p319
S'7f6bb219b5353d209f8b0dacb72d1bf1'
p320
stp321
Rp322
ag2
(L66773334L
L67821910L
(dp323
S'md5sum'
p324
S'a3bef4f4b095a180ab7ca526479f69ee'
p325
stp326
Rp327
ag2
(L67821910L
L68870486L
(dp328
S'md5sum'
p329
S'5f4ffba5eebb54ba3b87904371962073'
p330
stp331
Rp332
ag2
(L68870486L
L69919062L
(dp333
S'md5sum'
p334
S'1ba078c841aaf6161491ea97b4321428'
p335
stp336
Rp337
ag2
(L69919062L
L70632108L
(dp338
S'md5sum'
p339
S'd7efd777f78dad828266bffdb85e5a01'
p340
stp341
Rp342
ag2
(L70632108L
L71680684L
(dp343
S'md5sum'
p344
S'94ce0c0638ced9029ffec78a77b2d4ce'
p345
stp346
Rp347
ag2
(L71680684L
L72729260L
(dp348
S'md5sum'
p349
S'751b68a82c38a15566221fad371a6009'
p350
stp351
Rp352
ag2
(L72729260L
L73777836L
(dp353
S'md5sum'
p354
S'9b5642a3acb2225aad5c59c0096d17be'
p355
stp356
Rp357
ag2
(L73777836L
L74826412L
(dp358
S'md5sum'
p359
S'efa85518ee105d0a6fef81e12d428552'
p360
stp361
Rp362
ag2
(L74826412L
L75874988L
(dp363
S'md5sum'
p364
S'fb140071f3f20fb12f56e5810c1aa093'
p365
stp366
Rp367
ag2
(L75874988L
L76923564L
(dp368
S'md5sum'
p369
S'bee4ee8bebaf55ea21bb9e80131acca9'
p370
stp371
Rp372
ag2
(L76923564L
L77972140L
(dp373
S'md5sum'
p374
S'f4b0703f203e9e4d4d894fd39dba76cf'
p375
stp376
Rp377
ag2
(L77972140L
L79020716L
(dp378
S'md5sum'
p379
S'4d7aec55a98741cfd1d40bc498fa9372'
p380
stp381
Rp382
ag2
(L79020716L
L80069292L
(dp383
S'md5sum'
p384
S'b8c40eb54af16e9afe01a7e6e3476254'
p385
stp386
Rp387
ag2
(L80069292L
L81117868L
(dp388
S'md5sum'
p389
S'4301529e2f097982cb172c83fc11ce6b'
p390
stp391
Rp392
ag2
(L81117868L
L82166444L
(dp393
S'md5sum'
p394
S'78ecc58991517d50b04712f1d8a38c67'
p395
stp396
Rp397
ag2
(L82166444L
L83215020L
(dp398
S'md5sum'
p399
S'252501d8d7c1b8cb1a86e2733222d676'
p400
stp401
Rp402
ag2
(L83215020L
L84263596L
(dp403
S'md5sum'
p404
S'f1c4277f0e23dc119a103125365ca402'
p405
stp406
Rp407
ag2
(L84263596L
L85312172L
(dp408
S'md5sum'
p409
S'7c42ec40290acb6247f1c57cc2b4014c'
p410
stp411
Rp412
ag2
(L85312172L
L86360748L
(dp413
S'md5sum'
p414
S'bbadf3823f65b13a9943ba66f43c291e'
p415
stp416
Rp417
ag2
(L86360748L
L87409324L
(dp418
S'md5sum'
p419
S'87d7e64febf8ae8e73e5f0060d876e70'
p420
stp421
Rp422
ag2
(L87409324L
L88457900L
(dp423
S'md5sum'
p424
S'ba1a443d18068c7942b38a3645b0445c'
p425
stp426
Rp427
ag2
(L88457900L
L89506476L
(dp428
S'md5sum'
p429
S'c5ee5dc2c31ed0425eb6bf91f0222c6a'
p430
stp431
Rp432
ag2
(L89506476L
L90555052L
(dp433
S'md5sum'
p434
S'c4d24eca4965df9aa97ae70d12b945d8'
p435
stp436
Rp437
ag2
(L90555052L
L91603628L
(dp438
S'md5sum'
p439
S'39a1d715f5b03f3e5662a86aa8fa8e50'
p440
stp441
Rp442
ag2
(L91603628L
L92652204L
(dp443
S'md5sum'
p444
S'7db36ce56440bfa2aa41bfbe3783871b'
p445
stp446
Rp447
ag2
(L92652204L
L93700780L
(dp448
S'md5sum'
p449
S'5379e65f632e79e92baa75bec6f820ff'
p450
stp451
Rp452
ag2
(L93700780L
L94749356L
(dp453
S'md5sum'
p454
S'7c4676f0e3459da5583a434546c87286'
p455
stp456
Rp457
ag2
(L94749356L
L95797932L
(dp458
S'md5sum'
p459
S'454b8ebdb09ffe3cd9df32ff8d5f1603'
p460
stp461
Rp462
ag2
(L95797932L
L96846508L
(dp463
S'md5sum'
p464
S'f08807f6562f1985a92216146a57d6ba'
p465
stp466
Rp467
ag2
(L96846508L
L97895084L
(dp468
S'md5sum'
p469
S'9a16c9fb50e322a31113b0b7c9520b1c'
p470
stp471
Rp472
ag2
(L97895084L
L98943660L
(dp473
S'md5sum'
p474
S'd6271832640682693de88fd68e3bb635'
p475
stp476
Rp477
ag2
(L98943660L
L99992236L
(dp478
S'md5sum'
p479
S'6aa4f413c72d4c1683ee565514b0ebde'
p480
stp481
Rp482
ag2
(L99992236L
L101040812L
(dp483
S'md5sum'
p484
S'823795c0c29fe68e15f430df8526d88f'
p485
stp486
Rp487
ag2
(L101040812L
L102089388L
(dp488
S'md5sum'
p489
S'a8bc9cbc4e77575e4ae20f24b76dd5fd'
p490
stp491
Rp492
ag2
(L102089388L
L103137964L
(dp493
S'md5sum'
p494
S'4f595016d0ec8ff8c5aee1298a91f306'
p495
stp496
Rp497
ag2
(L103137964L
L104186540L
(dp498
S'md5sum'
p499
S'4ac4e0ac8a375467909a07d5b247090b'
p500
stp501
Rp502
ag2
(L104186540L
L105235116L
(dp503
S'md5sum'
p504
S'73679f12b91e3b9c99c53c037933ef78'
p505
stp506
Rp507
ag2
(L105235116L
L105948162L
(dp508
S'md5sum'
p509
S'473ffbcbfc1f835161173e1364fa1457'
p510
stp511
Rp512
ag2
(L105948162L
L106996738L
(dp513
S'md5sum'
p514
S'28c2d3aff0370a2483a1fbf89d6718c2'
p515
stp516
Rp517
ag2
(L106996738L
L108045314L
(dp518
S'md5sum'
p519
S'816a6ec8f0b7e07d2046230744af873f'
p520
stp521
Rp522
ag2
(L108045314L
L109093890L
(dp523
S'md5sum'
p524
S'5947a13110cf54da8dc8fe1a9a258ed3'
p525
stp526
Rp527
ag2
(L109093890L
L110142466L
(dp528
S'md5sum'
p529
S'ec624e356d8296babfc39605e3bb419e'
p530
stp531
Rp532
ag2
(L110142466L
L111191042L
(dp533
S'md5sum'
p534
S'382375a1a5cea1c1fefcfaa27c37fe3e'
p535
stp536
Rp537
ag2
(L111191042L
L112239618L
(dp538
S'md5sum'
p539
S'47eb49d938af313e6da06c8ac6e40926'
p540
stp541
Rp542
ag2
(L112239618L
L113288194L
(dp543
S'md5sum'
p544
S'9075d60cdbe222b5211682eedbc3c426'
p545
stp546
Rp547
ag2
(L113288194L
L114336770L
(dp548
S'md5sum'
p549
S'19590fd2b454b726bc92eca5be6a3f76'
p550
stp551
Rp552
ag2
(L114336770L
L115385346L
(dp553
S'md5sum'
p554
S'c86409f8030b00064dfba52823c8552d'
p555
stp556
Rp557
ag2
(L115385346L
L116433922L
(dp558
S'md5sum'
p559
S'70266b5c7c27591c7dea2ad8d01fecc2'
p560
stp561
Rp562
ag2
(L116433922L
L117482498L
(dp563
S'md5sum'
p564
S'e7122c489d2beb2cde425abcb5dabe4a'
p565
stp566
Rp567
ag2
(L117482498L
L118531074L
(dp568
S'md5sum'
p569
S'e12140cacdcd1367652aeddca7e52676'
p570
stp571
Rp572
ag2
(L118531074L
L119579650L
(dp573
S'md5sum'
p574
S'806626c54b1ecd81d7d8438e1db7b938'
p575
stp576
Rp577
ag2
(L119579650L
L120628226L
(dp578
S'md5sum'
p579
S'20a088e2855d0f5c28c7cca1ab967870'
p580
stp581
Rp582
ag2
(L120628226L
L121676802L
(dp583
S'md5sum'
p584
S'1296117f157d4983f64168fc6383432c'
p585
stp586
Rp587
ag2
(L121676802L
L122725378L
(dp588
S'md5sum'
p589
S'22178eaf867eda26366ba2536a410864'
p590
stp591
Rp592
ag2
(L122725378L
L123773954L
(dp593
S'md5sum'
p594
S'505e5fa448c3bfc017280983a497e36a'
p595
stp596
Rp597
ag2
(L123773954L
L124822530L
(dp598
S'md5sum'
p599
S'fa104e5a16e7065911f2aee11ab3c1c9'
p600
stp601
Rp602
ag2
(L124822530L
L125871106L
(dp603
S'md5sum'
p604
S'9c7eb85de7de52b989c962cfc0be52fb'
p605
stp606
Rp607
ag2
(L125871106L
L126919682L
(dp608
S'md5sum'
p609
S'5108ca4181c26bc8bf66da44ad4f63ad'
p610
stp611
Rp612
ag2
(L126919682L
L127968258L
(dp613
S'md5sum'
p614
S'c79471cbcfe31a5ac52f55ea212aa8f9'
p615
stp616
Rp617
ag2
(L127968258L
L129016834L
(dp618
S'md5sum'
p619
S'823bca24c2e8a7d695255592560ce967'
p620
stp621
Rp622
ag2
(L129016834L
L130065410L
(dp623
S'md5sum'
p624
S'9d01f56361d03c48c7a269540b7d2a96'
p625
stp626
Rp627
ag2
(L130065410L
L131113986L
(dp628
S'md5sum'
p629
S'144bdefefe5918a18241c61ff337ef22'
p630
stp631
Rp632
ag2
(L131113986L
L132162562L
(dp633
S'md5sum'
p634
S'4b250c1e8890dce45dbd122cf99e8019'
p635
stp636
Rp637
ag2
(L132162562L
L133211138L
(dp638
S'md5sum'
p639
S'33dcd6f832aa9f8f27118f1cc9202354'
p640
stp641
Rp642
ag2
(L133211138L
L134259714L
(dp643
S'md5sum'
p644
S'aa9310d90a6eb2f29957c5ac738532a1'
p645
stp646
Rp647
ag2
(L134259714L
L135308290L
(dp648
S'md5sum'
p649
S'70711c62dfdd683b13eeead32710820c'
p650
stp651
Rp652
ag2
(L135308290L
L136356866L
(dp653
S'md5sum'
p654
S'283b20728b16ceac4e1fee0b61b5b3eb'
p655
stp656
Rp657
ag2
(L136356866L
L137405442L
(dp658
S'md5sum'
p659
S'247582aff45078a70fa6ffd08ed2d0bd'
p660
stp661
Rp662
ag2
(L137405442L
L138454018L
(dp663
S'md5sum'
p664
S'd71d879aeda29a0dc2c3c7feb8a0169c'
p665
stp666
Rp667
ag2
(L138454018L
L139502594L
(dp668
S'md5sum'
p669
S'8c0f630ddff80a7bd58b6d5c25ba16b3'
p670
stp671
Rp672
ag2
(L139502594L
L140551170L
(dp673
S'md5sum'
p674
S'a155af5badbce4bac241835ae5a68c8a'
p675
stp676
Rp677
ag2
(L140551170L
L141264216L
(dp678
S'md5sum'
p679
S'29de64f64a1a58e706e5641a568e3544'
p680
stp681
Rp682
atp683
Rp684
.